target datalayout = "e-m:e-p270:32:32-p271:32:32-p272:64:64-i64:64-i128:128-f80:128-n8:16:32:64-S128"
target triple = "x86_64-unknown-linux-gnu"

%"class.nla::emonics" = type { %class.trail_stack, %class.union_find, %class.svector, ptr, %class.vector.1, %class.svector, i32, %class.svector.2, %"struct.nla::emonics::hash_canonical", %"struct.nla::emonics::eq_canonical", %class.map }
%class.trail_stack = type { %class.ptr_vector, %class.svector, %class.region }
%class.ptr_vector = type { %class.vector }
%class.vector = type { ptr }
%class.region = type { ptr, ptr, ptr, ptr, ptr }
%class.union_find = type { ptr, ptr, %class.svector, %class.svector, %class.svector, %"class.union_find<nla::emonics>::mk_var_trail" }
%"class.union_find<nla::emonics>::mk_var_trail" = type { %class.trail, ptr }
%class.trail = type { ptr }
%class.vector.1 = type { ptr }
%class.svector = type { %class.vector.0 }
%class.vector.0 = type { ptr }
%class.svector.2 = type { %class.vector.3 }
%class.vector.3 = type { ptr }
%"struct.nla::emonics::hash_canonical" = type { ptr }
%"struct.nla::emonics::eq_canonical" = type { ptr }
%class.map = type { %class.table2map }
%class.table2map = type { %class.core_hashtable }
%class.core_hashtable = type <{ %"struct.table2map<default_map_entry<unsigned int, svector<unsigned int>>, nla::emonics::hash_canonical, nla::emonics::eq_canonical>::entry_hash_proc", %"struct.table2map<default_map_entry<unsigned int, svector<unsigned int>>, nla::emonics::hash_canonical, nla::emonics::eq_canonical>::entry_eq_proc", ptr, i32, i32, i32, [4 x i8] }>
%"struct.table2map<default_map_entry<unsigned int, svector<unsigned int>>, nla::emonics::hash_canonical, nla::emonics::eq_canonical>::entry_hash_proc" = type { %"struct.nla::emonics::hash_canonical" }
%"struct.table2map<default_map_entry<unsigned int, svector<unsigned int>>, nla::emonics::hash_canonical, nla::emonics::eq_canonical>::entry_eq_proc" = type { %"struct.nla::emonics::eq_canonical" }

; Function Attrs: mustprogress nounwind uwtable
define linkonce_odr hidden noundef i32 @_ZNK6vectorIP5trailLb0EjE4sizeEv(ptr noundef nonnull align 8 dereferenceable(8) %this) #4 comdat align 2 {
entry:
  %retval = alloca i32, align 4
  %this.addr = alloca ptr, align 8
  store ptr %this, ptr %this.addr, align 8
  %this1 = load ptr, ptr %this.addr, align 8
  %m_data = getelementptr inbounds %class.vector, ptr %this1, i32 0, i32 0
  %0 = load ptr, ptr %m_data, align 8
  %cmp = icmp eq ptr %0, null
  br i1 %cmp, label %if.then, label %if.end

if.then:                                          ; preds = %entry
  store i32 0, ptr %retval, align 4
  br label %return

if.end:                                           ; preds = %entry
  %m_data2 = getelementptr inbounds %class.vector, ptr %this1, i32 0, i32 0
  %1 = load ptr, ptr %m_data2, align 8
  %arrayidx = getelementptr inbounds i32, ptr %1, i64 -1
  %2 = load i32, ptr %arrayidx, align 4
  store i32 %2, ptr %retval, align 4
  br label %return

return:                                           ; preds = %if.end, %if.then
  %3 = load i32, ptr %retval, align 4
  ret i32 %3
}

; Function Attrs: mustprogress nounwind uwtable
define linkonce_odr hidden void @_ZN6vectorIP5trailLb0EjE6shrinkEj(ptr noundef nonnull align 8 dereferenceable(8) %this, i32 noundef %s) #4 comdat align 2 {
entry:
  %this.addr = alloca ptr, align 8
  %s.addr = alloca i32, align 4
  store ptr %this, ptr %this.addr, align 8
  store i32 %s, ptr %s.addr, align 4
  %this1 = load ptr, ptr %this.addr, align 8
  %m_data = getelementptr inbounds %class.vector, ptr %this1, i32 0, i32 0
  %0 = load ptr, ptr %m_data, align 8
  %tobool = icmp ne ptr %0, null
  br i1 %tobool, label %if.then, label %if.else

if.then:                                          ; preds = %entry
  %1 = load i32, ptr %s.addr, align 4
  %m_data2 = getelementptr inbounds %class.vector, ptr %this1, i32 0, i32 0
  %2 = load ptr, ptr %m_data2, align 8
  %arrayidx = getelementptr inbounds i32, ptr %2, i64 -1
  store i32 %1, ptr %arrayidx, align 4
  br label %if.end

if.else:                                          ; preds = %entry
  br label %if.end

if.end:                                           ; preds = %if.else, %if.then
  ret void
}

; Function Attrs: mustprogress nounwind uwtable
define linkonce_odr hidden noundef ptr @_ZN6vectorIP5trailLb0EjE3endEv(ptr noundef nonnull align 8 dereferenceable(8) %this) #4 comdat align 2 {
entry:
  %this.addr = alloca ptr, align 8
  store ptr %this, ptr %this.addr, align 8
  %this1 = load ptr, ptr %this.addr, align 8
  %m_data = getelementptr inbounds %class.vector, ptr %this1, i32 0, i32 0
  %0 = load ptr, ptr %m_data, align 8
  %call = call noundef i32 @_ZNK6vectorIP5trailLb0EjE4sizeEv(ptr noundef nonnull align 8 dereferenceable(8) %this1)
  %idx.ext = zext i32 %call to i64
  %add.ptr = getelementptr inbounds ptr, ptr %0, i64 %idx.ext
  ret ptr %add.ptr
}

; Function Attrs: mustprogress nounwind uwtable
define linkonce_odr hidden noundef ptr @_ZN6vectorIP5trailLb0EjE5beginEv(ptr noundef nonnull align 8 dereferenceable(8) %this) #4 comdat align 2 {
entry:
  %this.addr = alloca ptr, align 8
  store ptr %this, ptr %this.addr, align 8
  %this1 = load ptr, ptr %this.addr, align 8
  %m_data = getelementptr inbounds %class.vector, ptr %this1, i32 0, i32 0
  %0 = load ptr, ptr %m_data, align 8
  ret ptr %0
}

; Function Attrs: mustprogress uwtable
define linkonce_odr hidden void @_ZN6region9pop_scopeEj(ptr noundef nonnull align 8 dereferenceable(40) %this, i32 noundef %num_scopes) #5 comdat align 2 {
entry:
  %this.addr = alloca ptr, align 8
  %num_scopes.addr = alloca i32, align 4
  %i = alloca i32, align 4
  store ptr %this, ptr %this.addr, align 8
  store i32 %num_scopes, ptr %num_scopes.addr, align 4
  %this1 = load ptr, ptr %this.addr, align 8
  store i32 0, ptr %i, align 4
  br label %for.cond

for.cond:                                         ; preds = %for.inc, %entry
  %0 = load i32, ptr %i, align 4
  %1 = load i32, ptr %num_scopes.addr, align 4
  %cmp = icmp ult i32 %0, %1
  br i1 %cmp, label %for.body, label %for.end

for.body:                                         ; preds = %for.cond
  call void @_ZN6region9pop_scopeEv(ptr noundef nonnull align 8 dereferenceable(40) %this1)
  br label %for.inc

for.inc:                                          ; preds = %for.body
  %2 = load i32, ptr %i, align 4
  %inc = add i32 %2, 1
  store i32 %inc, ptr %i, align 4
  br label %for.cond, !llvm.loop !20

for.end:                                          ; preds = %for.cond
  ret void
}

; Function Attrs: mustprogress nounwind uwtable
define linkonce_odr hidden void @_ZN6vectorIjLb0EjE6shrinkEj(ptr noundef nonnull align 8 dereferenceable(8) %this, i32 noundef %s) #4 comdat align 2 {
entry:
  %this.addr = alloca ptr, align 8
  %s.addr = alloca i32, align 4
  store ptr %this, ptr %this.addr, align 8
  store i32 %s, ptr %s.addr, align 4
  %this1 = load ptr, ptr %this.addr, align 8
  %m_data = getelementptr inbounds %class.vector.0, ptr %this1, i32 0, i32 0
  %0 = load ptr, ptr %m_data, align 8
  %tobool = icmp ne ptr %0, null
  br i1 %tobool, label %if.then, label %if.else

if.then:                                          ; preds = %entry
  %1 = load i32, ptr %s.addr, align 4
  %m_data2 = getelementptr inbounds %class.vector.0, ptr %this1, i32 0, i32 0
  %2 = load ptr, ptr %m_data2, align 8
  %arrayidx = getelementptr inbounds i32, ptr %2, i64 -1
  store i32 %1, ptr %arrayidx, align 4
  br label %if.end

if.else:                                          ; preds = %entry
  br label %if.end

if.end:                                           ; preds = %if.else, %if.then
  ret void
}

; Function Attrs: mustprogress uwtable
define linkonce_odr hidden void @_Z16undo_trail_stackR10ptr_vectorI5trailEj(ptr noundef nonnull align 8 dereferenceable(8) %s, i32 noundef %old_size) #5 comdat {
entry:
  %s.addr = alloca ptr, align 8
  %old_size.addr = alloca i32, align 4
  %begin = alloca ptr, align 8
  %it = alloca ptr, align 8
  store ptr %s, ptr %s.addr, align 8
  store i32 %old_size, ptr %old_size.addr, align 4
  %0 = load ptr, ptr %s.addr, align 8
  %call = call noundef ptr @_ZN6vectorIP5trailLb0EjE5beginEv(ptr noundef nonnull align 8 dereferenceable(8) %0)
  %1 = load i32, ptr %old_size.addr, align 4
  %idx.ext = zext i32 %1 to i64
  %add.ptr = getelementptr inbounds ptr, ptr %call, i64 %idx.ext
  store ptr %add.ptr, ptr %begin, align 8
  %2 = load ptr, ptr %s.addr, align 8
  %call1 = call noundef ptr @_ZN6vectorIP5trailLb0EjE3endEv(ptr noundef nonnull align 8 dereferenceable(8) %2)
  store ptr %call1, ptr %it, align 8
  br label %while.cond

while.cond:                                       ; preds = %while.body, %entry
  %3 = load ptr, ptr %it, align 8
  %4 = load ptr, ptr %begin, align 8
  %cmp = icmp ne ptr %3, %4
  br i1 %cmp, label %while.body, label %while.end

while.body:                                       ; preds = %while.cond
  %5 = load ptr, ptr %it, align 8
  %incdec.ptr = getelementptr inbounds ptr, ptr %5, i32 -1
  store ptr %incdec.ptr, ptr %it, align 8
  %6 = load ptr, ptr %it, align 8
  %7 = load ptr, ptr %6, align 8
  %vtable = load ptr, ptr %7, align 8
  %vfn = getelementptr inbounds ptr, ptr %vtable, i64 2
  %8 = load ptr, ptr %vfn, align 8
  call void %8(ptr noundef nonnull align 8 dereferenceable(8) %7)
  br label %while.cond, !llvm.loop !19

while.end:                                        ; preds = %while.cond
  %9 = load ptr, ptr %s.addr, align 8
  %10 = load i32, ptr %old_size.addr, align 4
  call void @_ZN6vectorIP5trailLb0EjE6shrinkEj(ptr noundef nonnull align 8 dereferenceable(8) %9, i32 noundef %10)
  ret void
}

; Function Attrs: mustprogress nounwind uwtable
define linkonce_odr hidden noundef nonnull align 4 dereferenceable(4) ptr @_ZN6vectorIjLb0EjEixEj(ptr noundef nonnull align 8 dereferenceable(8) %this, i32 noundef %idx) #4 comdat align 2 {
entry:
  %this.addr = alloca ptr, align 8
  %idx.addr = alloca i32, align 4
  store ptr %this, ptr %this.addr, align 8
  store i32 %idx, ptr %idx.addr, align 4
  %this1 = load ptr, ptr %this.addr, align 8
  %m_data = getelementptr inbounds %class.vector.0, ptr %this1, i32 0, i32 0
  %0 = load ptr, ptr %m_data, align 8
  %1 = load i32, ptr %idx.addr, align 4
  %idxprom = zext i32 %1 to i64
  %arrayidx = getelementptr inbounds i32, ptr %0, i64 %idxprom
  ret ptr %arrayidx
}

; Function Attrs: mustprogress nounwind uwtable
define linkonce_odr hidden noundef i32 @_ZNK6vectorIjLb0EjE4sizeEv(ptr noundef nonnull align 8 dereferenceable(8) %this) #4 comdat align 2 {
entry:
  %retval = alloca i32, align 4
  %this.addr = alloca ptr, align 8
  store ptr %this, ptr %this.addr, align 8
  %this1 = load ptr, ptr %this.addr, align 8
  %m_data = getelementptr inbounds %class.vector.0, ptr %this1, i32 0, i32 0
  %0 = load ptr, ptr %m_data, align 8
  %cmp = icmp eq ptr %0, null
  br i1 %cmp, label %if.then, label %if.end

if.then:                                          ; preds = %entry
  store i32 0, ptr %retval, align 4
  br label %return

if.end:                                           ; preds = %entry
  %m_data2 = getelementptr inbounds %class.vector.0, ptr %this1, i32 0, i32 0
  %1 = load ptr, ptr %m_data2, align 8
  %arrayidx = getelementptr inbounds i32, ptr %1, i64 -1
  %2 = load i32, ptr %arrayidx, align 4
  store i32 %2, ptr %retval, align 4
  br label %return

return:                                           ; preds = %if.end, %if.then
  %3 = load i32, ptr %retval, align 4
  ret i32 %3
}

; Function Attrs: mustprogress uwtable
define linkonce_odr hidden void @_ZN11trail_stack9pop_scopeEj(ptr noundef nonnull align 8 dereferenceable(56) %this, i32 noundef %num_scopes) #5 comdat align 2 {
entry:
  %this.addr = alloca ptr, align 8
  %num_scopes.addr = alloca i32, align 4
  %lvl = alloca i32, align 4
  %new_lvl = alloca i32, align 4
  %old_size = alloca i32, align 4
  store ptr %this, ptr %this.addr, align 8
  store i32 %num_scopes, ptr %num_scopes.addr, align 4
  %this1 = load ptr, ptr %this.addr, align 8
  %0 = load i32, ptr %num_scopes.addr, align 4
  %cmp = icmp eq i32 %0, 0
  br i1 %cmp, label %if.then, label %if.end

if.then:                                          ; preds = %entry
  br label %return

if.end:                                           ; preds = %entry
  %m_scopes = getelementptr inbounds %class.trail_stack, ptr %this1, i32 0, i32 1
  %call = call noundef i32 @_ZNK6vectorIjLb0EjE4sizeEv(ptr noundef nonnull align 8 dereferenceable(8) %m_scopes)
  store i32 %call, ptr %lvl, align 4
  %1 = load i32, ptr %lvl, align 4
  %2 = load i32, ptr %num_scopes.addr, align 4
  %sub = sub i32 %1, %2
  store i32 %sub, ptr %new_lvl, align 4
  %m_scopes2 = getelementptr inbounds %class.trail_stack, ptr %this1, i32 0, i32 1
  %3 = load i32, ptr %new_lvl, align 4
  %call3 = call noundef nonnull align 4 dereferenceable(4) ptr @_ZN6vectorIjLb0EjEixEj(ptr noundef nonnull align 8 dereferenceable(8) %m_scopes2, i32 noundef %3)
  %4 = load i32, ptr %call3, align 4
  store i32 %4, ptr %old_size, align 4
  %m_trail_stack = getelementptr inbounds %class.trail_stack, ptr %this1, i32 0, i32 0
  %5 = load i32, ptr %old_size, align 4
  call void @_Z16undo_trail_stackR10ptr_vectorI5trailEj(ptr noundef nonnull align 8 dereferenceable(8) %m_trail_stack, i32 noundef %5)
  %m_scopes4 = getelementptr inbounds %class.trail_stack, ptr %this1, i32 0, i32 1
  %6 = load i32, ptr %new_lvl, align 4
  call void @_ZN6vectorIjLb0EjE6shrinkEj(ptr noundef nonnull align 8 dereferenceable(8) %m_scopes4, i32 noundef %6)
  %m_region = getelementptr inbounds %class.trail_stack, ptr %this1, i32 0, i32 2
  %7 = load i32, ptr %num_scopes.addr, align 4
  call void @_ZN6region9pop_scopeEj(ptr noundef nonnull align 8 dereferenceable(40) %m_region, i32 noundef %7)
  br label %return

return:                                           ; preds = %if.end, %if.then
  ret void
}

; Function Attrs: mustprogress uwtable
define hidden void @_ZN3nla7emonics3popEj(ptr noundef nonnull align 8 dereferenceable(216) %this, i32 noundef %n) #5 align 2 {
entry:
  %this.addr = alloca ptr, align 8
  %n.addr = alloca i32, align 4
  %i = alloca i32, align 4
  store ptr %this, ptr %this.addr, align 8
  store i32 %n, ptr %n.addr, align 4
  %this1 = load ptr, ptr %this.addr, align 8
  store i32 0, ptr %i, align 4
  br label %for.cond

for.cond:                                         ; preds = %for.inc, %entry
  %0 = load i32, ptr %i, align 4
  %1 = load i32, ptr %n.addr, align 4
  %cmp = icmp ult i32 %0, %1
  br i1 %cmp, label %for.body, label %for.end

for.body:                                         ; preds = %for.cond
  %m_ve = getelementptr inbounds %"class.nla::emonics", ptr %this1, i32 0, i32 3
  %2 = load ptr, ptr %m_ve, align 8
  call void @_ZN3nla7var_eqsINS_7emonicsEE3popEj(ptr noundef nonnull align 8 dereferenceable(184) %2, i32 noundef 1)
  %m_u_f_stack = getelementptr inbounds %"class.nla::emonics", ptr %this1, i32 0, i32 0
  call void @_ZN11trail_stack9pop_scopeEj(ptr noundef nonnull align 8 dereferenceable(56) %m_u_f_stack, i32 noundef 1)
  br label %for.inc

for.inc:                                          ; preds = %for.body
  %3 = load i32, ptr %i, align 4
  %inc = add i32 %3, 1
  store i32 %inc, ptr %i, align 4
  br label %for.cond, !llvm.loop !6

for.end:                                          ; preds = %for.cond
  ret void
}