; Function Attrs: mustprogress uwtable
define hidden void @_ZN3nla7emonics3popEj(ptr noundef nonnull align 8 dereferenceable(216) %this, i32 noundef %n) local_unnamed_addr #4 align 2 {
entry:
  %cmp2.not = icmp eq i32 %n, 0
  br i1 %cmp2.not, label %for.end, label %for.body.lr.ph

for.body.lr.ph:                                   ; preds = %entry
  %m_ve = getelementptr inbounds i8, ptr %this, i64 120
  %m_scopes.i = getelementptr inbounds i8, ptr %this, i64 8
  %m_region.i = getelementptr inbounds i8, ptr %this, i64 16
  br label %for.body

for.body:                                         ; preds = %for.body.lr.ph, %_ZN6vectorIjLb0EjE6shrinkEj.exit.i
  %i.03 = phi i32 [ 0, %for.body.lr.ph ], [ %inc, %_ZN6vectorIjLb0EjE6shrinkEj.exit.i ]
  %0 = load ptr, ptr %m_ve, align 8
  tail call void @_ZN3nla7var_eqsINS_7emonicsEE3popEj(ptr noundef nonnull align 8 dereferenceable(184) %0, i32 noundef 1)
  %1 = load ptr, ptr %m_scopes.i, align 8
  %cmp.i.i = icmp eq ptr %1, null
  br i1 %cmp.i.i, label %_ZNK6vectorIjLb0EjE4sizeEv.exit.i, label %if.end.i.i

if.end.i.i:                                       ; preds = %for.body
  %arrayidx.i.i = getelementptr inbounds i8, ptr %1, i64 -4
  %2 = load i32, ptr %arrayidx.i.i, align 4
  br label %_ZNK6vectorIjLb0EjE4sizeEv.exit.i

_ZNK6vectorIjLb0EjE4sizeEv.exit.i:                ; preds = %if.end.i.i, %for.body
  %retval.0.i.i = phi i32 [ %2, %if.end.i.i ], [ 0, %for.body ]
  %sub.i = add i32 %retval.0.i.i, -1
  %idxprom.i.i = zext i32 %sub.i to i64
  %arrayidx.i4.i = getelementptr inbounds i32, ptr %1, i64 %idxprom.i.i
  %3 = load i32, ptr %arrayidx.i4.i, align 4
  %4 = load ptr, ptr %this, align 8
  %idx.ext.i.i = zext i32 %3 to i64
  %add.ptr.i.i = getelementptr inbounds ptr, ptr %4, i64 %idx.ext.i.i
  %cmp.i.i.i.i = icmp eq ptr %4, null
  br i1 %cmp.i.i.i.i, label %_ZN6vectorIP5trailLb0EjE3endEv.exit.i.i, label %if.end.i.i.i.i

if.end.i.i.i.i:                                   ; preds = %_ZNK6vectorIjLb0EjE4sizeEv.exit.i
  %arrayidx.i.i.i.i = getelementptr inbounds i8, ptr %4, i64 -4
  %5 = load i32, ptr %arrayidx.i.i.i.i, align 4
  %6 = zext i32 %5 to i64
  br label %_ZN6vectorIP5trailLb0EjE3endEv.exit.i.i

_ZN6vectorIP5trailLb0EjE3endEv.exit.i.i:          ; preds = %if.end.i.i.i.i, %_ZNK6vectorIjLb0EjE4sizeEv.exit.i
  %retval.0.i.i.i.i = phi i64 [ %6, %if.end.i.i.i.i ], [ 0, %_ZNK6vectorIjLb0EjE4sizeEv.exit.i ]
  %cmp.not6.i.i = icmp eq i64 %retval.0.i.i.i.i, %idx.ext.i.i
  br i1 %cmp.not6.i.i, label %while.end.i.i, label %while.body.preheader.i.i

while.body.preheader.i.i:                         ; preds = %_ZN6vectorIP5trailLb0EjE3endEv.exit.i.i
  %add.ptr.i.i.i = getelementptr inbounds ptr, ptr %4, i64 %retval.0.i.i.i.i
  br label %while.body.i.i

while.body.i.i:                                   ; preds = %while.body.i.i, %while.body.preheader.i.i
  %it.07.i.i = phi ptr [ %incdec.ptr.i.i, %while.body.i.i ], [ %add.ptr.i.i.i, %while.body.preheader.i.i ]
  %incdec.ptr.i.i = getelementptr inbounds i8, ptr %it.07.i.i, i64 -8
  %7 = load ptr, ptr %incdec.ptr.i.i, align 8
  %vtable.i.i = load ptr, ptr %7, align 8
  %vfn.i.i = getelementptr inbounds i8, ptr %vtable.i.i, i64 16
  %8 = load ptr, ptr %vfn.i.i, align 8
  tail call void %8(ptr noundef nonnull align 8 dereferenceable(8) %7)
  %cmp.not.i.i = icmp eq ptr %incdec.ptr.i.i, %add.ptr.i.i
  br i1 %cmp.not.i.i, label %while.end.loopexit.i.i, label %while.body.i.i, !llvm.loop !6

while.end.loopexit.i.i:                           ; preds = %while.body.i.i
  %.pre.i.i = load ptr, ptr %this, align 8
  br label %while.end.i.i

while.end.i.i:                                    ; preds = %while.end.loopexit.i.i, %_ZN6vectorIP5trailLb0EjE3endEv.exit.i.i
  %9 = phi ptr [ %.pre.i.i, %while.end.loopexit.i.i ], [ %4, %_ZN6vectorIP5trailLb0EjE3endEv.exit.i.i ]
  %tobool.not.i.i.i = icmp eq ptr %9, null
  br i1 %tobool.not.i.i.i, label %_Z16undo_trail_stackR10ptr_vectorI5trailEj.exit.i, label %if.then.i.i.i

if.then.i.i.i:                                    ; preds = %while.end.i.i
  %arrayidx.i.i.i = getelementptr inbounds i8, ptr %9, i64 -4
  store i32 %3, ptr %arrayidx.i.i.i, align 4
  br label %_Z16undo_trail_stackR10ptr_vectorI5trailEj.exit.i

_Z16undo_trail_stackR10ptr_vectorI5trailEj.exit.i: ; preds = %if.then.i.i.i, %while.end.i.i
  %10 = load ptr, ptr %m_scopes.i, align 8
  %tobool.not.i.i = icmp eq ptr %10, null
  br i1 %tobool.not.i.i, label %_ZN6vectorIjLb0EjE6shrinkEj.exit.i, label %if.then.i.i

if.then.i.i:                                      ; preds = %_Z16undo_trail_stackR10ptr_vectorI5trailEj.exit.i
  %arrayidx.i5.i = getelementptr inbounds i8, ptr %10, i64 -4
  store i32 %sub.i, ptr %arrayidx.i5.i, align 4
  br label %_ZN6vectorIjLb0EjE6shrinkEj.exit.i

_ZN6vectorIjLb0EjE6shrinkEj.exit.i:               ; preds = %if.then.i.i, %_Z16undo_trail_stackR10ptr_vectorI5trailEj.exit.i
  tail call void @_ZN6region9pop_scopeEv(ptr noundef nonnull align 8 dereferenceable(40) %m_region.i)
  %inc = add nuw i32 %i.03, 1
  %exitcond.not = icmp eq i32 %inc, %n
  br i1 %exitcond.not, label %for.end, label %for.body, !llvm.loop !9

for.end:                                          ; preds = %_ZN6vectorIjLb0EjE6shrinkEj.exit.i, %entry
  ret void
}